; Function Attrs: nounwind uwtable
define ptr @d2i_PrivateKey_ex(i32 noundef %0, ptr noundef %1, ptr noundef %2, i64 noundef %3, ptr noundef %4, ptr noundef %5) local_unnamed_addr #0 {
  %7 = tail call fastcc ptr @d2i_PrivateKey_decoder(i32 noundef %0, ptr noundef %1, ptr noundef %2, i64 noundef %3, ptr noundef %4, ptr noundef %5)
  %8 = icmp eq ptr %7, null
  br i1 %8, label %9, label %11

9:                                                ; preds = %6
  %10 = tail call ptr @ossl_d2i_PrivateKey_legacy(i32 noundef %0, ptr noundef %1, ptr noundef %2, i64 noundef %3, ptr noundef %4, ptr noundef %5)
  br label %11

11:                                               ; preds = %9, %6
  %.0 = phi ptr [ %10, %9 ], [ %7, %6 ]
  ret ptr %.0
}